; Function Attrs: mustprogress uwtable
define void @_ZNK3gmx10OptionInfo22defaultValuesAsStringsB5cxx11Ev(ptr dead_on_unwind noalias writable sret(%"class.std::vector.24") align 8 %0, ptr noundef nonnull readonly align 8 captures(none) dereferenceable(16) %1) local_unnamed_addr #0 align 2 {
  %3 = getelementptr inbounds nuw i8, ptr %1, i64 8
  %4 = load ptr, ptr %3, align 8, !tbaa !66
  %5 = load ptr, ptr %4, align 8, !tbaa !3
  %6 = getelementptr inbounds nuw i8, ptr %5, i64 56
  %7 = load ptr, ptr %6, align 8
  tail call void %7(ptr dead_on_unwind writable sret(%"class.std::vector.24") align 8 %0, ptr noundef nonnull align 8 dereferenceable(98) %4)
  ret void
}